ARM GAS  /tmp/ccmqDnAB.s 			page 1


   1              		.cpu cortex-m4
   2              		.eabi_attribute 27, 1
   3              		.eabi_attribute 28, 1
   4              		.eabi_attribute 20, 1
   5              		.eabi_attribute 21, 1
   6              		.eabi_attribute 23, 3
   7              		.eabi_attribute 24, 1
   8              		.eabi_attribute 25, 1
   9              		.eabi_attribute 26, 1
  10              		.eabi_attribute 30, 1
  11              		.eabi_attribute 34, 1
  12              		.eabi_attribute 18, 4
  13              		.file	"display.c"
  14              		.text
  15              	.Ltext0:
  16              		.cfi_sections	.debug_frame
  17              		.section	.text.Display_Init,"ax",%progbits
  18              		.align	1
  19              		.global	Display_Init
  20              		.syntax unified
  21              		.thumb
  22              		.thumb_func
  23              		.fpu fpv4-sp-d16
  25              	Display_Init:
  26              	.LFB123:
  27              		.file 1 "Display/display.c"
   1:Display/display.c **** /**
   2:Display/display.c ****   ******************************************************************************
   3:Display/display.c ****   * @file           : display.c
   4:Display/display.c ****   * @author         : Karol Gutowski
   5:Display/display.c ****   * @brief          : This file contains funcitons for display operation.
   6:Display/display.c ****   ******************************************************************************
   7:Display/display.c ****   */
   8:Display/display.c **** 
   9:Display/display.c **** #include "display.h"
  10:Display/display.c **** 
  11:Display/display.c **** void Display_Init()
  12:Display/display.c **** {
  28              		.loc 1 12 0
  29              		.cfi_startproc
  30              		@ args = 0, pretend = 0, frame = 0
  31              		@ frame_needed = 0, uses_anonymous_args = 0
  32 0000 10B5     		push	{r4, lr}
  33              	.LCFI0:
  34              		.cfi_def_cfa_offset 8
  35              		.cfi_offset 4, -8
  36              		.cfi_offset 14, -4
  37 0002 82B0     		sub	sp, sp, #8
  38              	.LCFI1:
  39              		.cfi_def_cfa_offset 16
  13:Display/display.c **** 
  14:Display/display.c ****   EPD_Init(lut_full_update);
  40              		.loc 1 14 0
  41 0004 1148     		ldr	r0, .L4
  42 0006 FFF7FEFF 		bl	EPD_Init
  43              	.LVL0:
  15:Display/display.c ****   EPD_Clear();
ARM GAS  /tmp/ccmqDnAB.s 			page 2


  44              		.loc 1 15 0
  45 000a FFF7FEFF 		bl	EPD_Clear
  46              	.LVL1:
  16:Display/display.c ****   DEV_Delay_ms(500);
  47              		.loc 1 16 0
  48 000e 4FF4FA70 		mov	r0, #500
  49 0012 FFF7FEFF 		bl	HAL_Delay
  50              	.LVL2:
  17:Display/display.c **** 
  18:Display/display.c ****   UWORD Imagesize = ((EPD_WIDTH % 8 == 0)? (EPD_WIDTH / 8 ): (EPD_WIDTH / 8 + 1)) * EPD_HEIGHT;
  19:Display/display.c ****   if((BlackImage = (UBYTE *)malloc(Imagesize)) == NULL) {
  51              		.loc 1 19 0
  52 0016 4FF49450 		mov	r0, #4736
  53 001a FFF7FEFF 		bl	malloc
  54              	.LVL3:
  55 001e 0C4B     		ldr	r3, .L4+4
  56 0020 1860     		str	r0, [r3]
  57 0022 88B1     		cbz	r0, .L1
  20:Display/display.c ****       return -1;
  21:Display/display.c ****   }
  22:Display/display.c ****   Paint_NewImage(BlackImage, EPD_WIDTH, EPD_HEIGHT, 270, WHITE);
  58              		.loc 1 22 0
  59 0024 FF24     		movs	r4, #255
  60 0026 0094     		str	r4, [sp]
  61 0028 4FF48773 		mov	r3, #270
  62 002c 4FF49472 		mov	r2, #296
  63 0030 8021     		movs	r1, #128
  64 0032 FFF7FEFF 		bl	Paint_NewImage
  65              	.LVL4:
  23:Display/display.c ****   Paint_SelectImage(BlackImage);
  66              		.loc 1 23 0
  67 0036 064B     		ldr	r3, .L4+4
  68 0038 1868     		ldr	r0, [r3]
  69 003a FFF7FEFF 		bl	Paint_SelectImage
  70              	.LVL5:
  24:Display/display.c ****   Paint_Clear(WHITE);
  71              		.loc 1 24 0
  72 003e 2046     		mov	r0, r4
  73 0040 FFF7FEFF 		bl	Paint_Clear
  74              	.LVL6:
  25:Display/display.c **** 
  26:Display/display.c ****   #if 0
  27:Display/display.c ****       /*show image for array*/
  28:Display/display.c ****       Paint_SelectImage(BlackImage);
  29:Display/display.c ****       Paint_Clear(WHITE);
  30:Display/display.c ****       Paint_DrawBitMap(gImage_2in9);
  31:Display/display.c **** 
  32:Display/display.c ****       EPD_Display(BlackImage);
  33:Display/display.c **** 
  34:Display/display.c ****       Paint_Clear(WHITE);
  35:Display/display.c ****       Display_Text();
  36:Display/display.c ****       DEV_Delay_ms(2000);
  37:Display/display.c ****       EPD_Display(BlackImage);
  38:Display/display.c ****   #endif
  39:Display/display.c **** 
  40:Display/display.c ****   Menu_Init();
  75              		.loc 1 40 0
ARM GAS  /tmp/ccmqDnAB.s 			page 3


  76 0044 FFF7FEFF 		bl	Menu_Init
  77              	.LVL7:
  78              	.L1:
  41:Display/display.c **** }
  79              		.loc 1 41 0
  80 0048 02B0     		add	sp, sp, #8
  81              	.LCFI2:
  82              		.cfi_def_cfa_offset 8
  83              		@ sp needed
  84 004a 10BD     		pop	{r4, pc}
  85              	.L5:
  86              		.align	2
  87              	.L4:
  88 004c 00000000 		.word	lut_full_update
  89 0050 00000000 		.word	BlackImage
  90              		.cfi_endproc
  91              	.LFE123:
  93              		.section	.text.Display,"ax",%progbits
  94              		.align	1
  95              		.global	Display
  96              		.syntax unified
  97              		.thumb
  98              		.thumb_func
  99              		.fpu fpv4-sp-d16
 101              	Display:
 102              	.LFB124:
  42:Display/display.c **** 
  43:Display/display.c **** void Display()
  44:Display/display.c **** {
 103              		.loc 1 44 0
 104              		.cfi_startproc
 105              		@ args = 0, pretend = 0, frame = 0
 106              		@ frame_needed = 0, uses_anonymous_args = 0
 107 0000 08B5     		push	{r3, lr}
 108              	.LCFI3:
 109              		.cfi_def_cfa_offset 8
 110              		.cfi_offset 3, -8
 111              		.cfi_offset 14, -4
  45:Display/display.c ****   Update_Menu();
 112              		.loc 1 45 0
 113 0002 FFF7FEFF 		bl	Update_Menu
 114              	.LVL8:
  46:Display/display.c ****   action=0;
 115              		.loc 1 46 0
 116 0006 024B     		ldr	r3, .L8
 117 0008 0022     		movs	r2, #0
 118 000a 1A60     		str	r2, [r3]
  47:Display/display.c **** }
 119              		.loc 1 47 0
 120 000c 08BD     		pop	{r3, pc}
 121              	.L9:
 122 000e 00BF     		.align	2
 123              	.L8:
 124 0010 00000000 		.word	action
 125              		.cfi_endproc
 126              	.LFE124:
 128              		.section	.text.Display_Text,"ax",%progbits
ARM GAS  /tmp/ccmqDnAB.s 			page 4


 129              		.align	1
 130              		.global	Display_Text
 131              		.syntax unified
 132              		.thumb
 133              		.thumb_func
 134              		.fpu fpv4-sp-d16
 136              	Display_Text:
 137              	.LFB125:
  48:Display/display.c **** 
  49:Display/display.c **** /*
  50:Display/display.c ****  * Function: Display_Text
  51:Display/display.c ****  * ----------------------------
  52:Display/display.c ****  *   Displays long text with proper usage of new lines.
  53:Display/display.c ****  *
  54:Display/display.c ****  *   (in future) text_pointer: char pointer to text, that will be displayed
  55:Display/display.c ****  *
  56:Display/display.c ****  *   (in future) returns: pointer to the last character that was displayed
  57:Display/display.c ****  */
  58:Display/display.c **** void Display_Text()
  59:Display/display.c **** {
 138              		.loc 1 59 0
 139              		.cfi_startproc
 140              		@ args = 0, pretend = 0, frame = 0
 141              		@ frame_needed = 0, uses_anonymous_args = 0
 142 0000 2DE9F041 		push	{r4, r5, r6, r7, r8, lr}
 143              	.LCFI4:
 144              		.cfi_def_cfa_offset 24
 145              		.cfi_offset 4, -24
 146              		.cfi_offset 5, -20
 147              		.cfi_offset 6, -16
 148              		.cfi_offset 7, -12
 149              		.cfi_offset 8, -8
 150              		.cfi_offset 14, -4
 151 0004 82B0     		sub	sp, sp, #8
 152              	.LCFI5:
 153              		.cfi_def_cfa_offset 32
 154              	.LVL9:
  60:Display/display.c ****   int pointer_text = 0;
  61:Display/display.c ****   int start = 0;
  62:Display/display.c ****   int finish = 0;
  63:Display/display.c ****   int max_break = 0;
  64:Display/display.c ****   int max_space = 0;
  65:Display/display.c ****   int pointerx=1;
  66:Display/display.c ****   int pointery=1;
 155              		.loc 1 66 0
 156 0006 0126     		movs	r6, #1
  60:Display/display.c ****   int pointer_text = 0;
 157              		.loc 1 60 0
 158 0008 0024     		movs	r4, #0
  67:Display/display.c ****   static char* text = "Prologue\n Light rapidly faded away as the darkness began to swallow him. Ha
  68:Display/display.c **** 
  69:Display/display.c ****   while(pointery<EPD_WIDTH-Font12.Height)
 159              		.loc 1 69 0
 160 000a 2FE0     		b	.L11
 161              	.LVL10:
 162              	.L19:
 163              	.LBB2:
ARM GAS  /tmp/ccmqDnAB.s 			page 5


  70:Display/display.c ****   {
  71:Display/display.c ****     for(int j=start;j<start+EPD_HEIGHT/Font12.Width;j++)
  72:Display/display.c ****     {
  73:Display/display.c ****       if(text[j]==' ')
  74:Display/display.c ****         max_space=j;
 164              		.loc 1 74 0
 165 000c 1546     		mov	r5, r2
 166              	.LVL11:
 167              	.L12:
  71:Display/display.c ****     {
 168              		.loc 1 71 0 discriminator 2
 169 000e 0132     		adds	r2, r2, #1
 170              	.LVL12:
 171              	.L18:
  71:Display/display.c ****     {
 172              		.loc 1 71 0 is_stmt 0 discriminator 1
 173 0010 1E4B     		ldr	r3, .L24
 174 0012 9988     		ldrh	r1, [r3, #4]
 175 0014 4FF49473 		mov	r3, #296
 176 0018 93FBF1F3 		sdiv	r3, r3, r1
 177 001c 2344     		add	r3, r3, r4
 178 001e 9342     		cmp	r3, r2
 179 0020 06DD     		ble	.L22
  73:Display/display.c ****         max_space=j;
 180              		.loc 1 73 0 is_stmt 1
 181 0022 1B4B     		ldr	r3, .L24+4
 182 0024 D35C     		ldrb	r3, [r2, r3]	@ zero_extendqisi2
 183 0026 202B     		cmp	r3, #32
 184 0028 F0D0     		beq	.L19
  75:Display/display.c ****       else
  76:Display/display.c ****       {
  77:Display/display.c ****         if(text[j]=='\n')
 185              		.loc 1 77 0
 186 002a 0A2B     		cmp	r3, #10
 187 002c EFD1     		bne	.L12
 188 002e 00E0     		b	.L13
 189              	.L22:
 190 0030 0022     		movs	r2, #0
 191              	.LVL13:
 192              	.L13:
 193              	.LBE2:
  78:Display/display.c ****         {
  79:Display/display.c ****           max_break=j;
  80:Display/display.c ****           break;
  81:Display/display.c ****         }
  82:Display/display.c ****       }
  83:Display/display.c ****     }
  84:Display/display.c ****     if(max_break > max_space)
 194              		.loc 1 84 0
 195 0032 AA42     		cmp	r2, r5
 196 0034 00DD     		ble	.L15
  85:Display/display.c ****       finish = max_break;
 197              		.loc 1 85 0
 198 0036 1546     		mov	r5, r2
 199              	.LVL14:
 200              	.L15:
 201              	.LBB3:
ARM GAS  /tmp/ccmqDnAB.s 			page 6


  86:Display/display.c ****     else
  87:Display/display.c ****       finish = max_space;
  88:Display/display.c ****     for(int j=start;j<finish;j++)
 202              		.loc 1 88 0
 203 0038 0127     		movs	r7, #1
 204 003a 10E0     		b	.L16
 205              	.LVL15:
 206              	.L17:
  89:Display/display.c ****     {
  90:Display/display.c ****       Paint_DrawChar(pointerx, pointery, text[j], &Font12, WHITE, BLACK);
 207              		.loc 1 90 0 discriminator 3
 208 003c DFF84C80 		ldr	r8, .L24
 209 0040 134B     		ldr	r3, .L24+4
 210 0042 E25C     		ldrb	r2, [r4, r3]	@ zero_extendqisi2
 211 0044 0023     		movs	r3, #0
 212 0046 0193     		str	r3, [sp, #4]
 213 0048 FF23     		movs	r3, #255
 214 004a 0093     		str	r3, [sp]
 215 004c 4346     		mov	r3, r8
 216 004e B1B2     		uxth	r1, r6
 217 0050 B8B2     		uxth	r0, r7
 218 0052 FFF7FEFF 		bl	Paint_DrawChar
 219              	.LVL16:
  91:Display/display.c ****       pointerx+=Font12.Width;
 220              		.loc 1 91 0 discriminator 3
 221 0056 B8F80430 		ldrh	r3, [r8, #4]
 222 005a 1F44     		add	r7, r7, r3
 223              	.LVL17:
  92:Display/display.c ****       pointer_text++;
 224              		.loc 1 92 0 discriminator 3
 225 005c 0134     		adds	r4, r4, #1
 226              	.LVL18:
 227              	.L16:
  88:Display/display.c ****     {
 228              		.loc 1 88 0 discriminator 1
 229 005e AC42     		cmp	r4, r5
 230 0060 ECDB     		blt	.L17
 231              	.LBE3:
  93:Display/display.c ****     }
  94:Display/display.c ****     pointer_text++;
 232              		.loc 1 94 0
 233 0062 0134     		adds	r4, r4, #1
 234              	.LVL19:
  95:Display/display.c ****     start=pointer_text;
  96:Display/display.c ****     pointery+=Font12.Height+1;
 235              		.loc 1 96 0
 236 0064 094B     		ldr	r3, .L24
 237 0066 DB88     		ldrh	r3, [r3, #6]
 238 0068 0133     		adds	r3, r3, #1
 239 006a 1E44     		add	r6, r6, r3
 240              	.LVL20:
 241              	.L11:
  69:Display/display.c ****   {
 242              		.loc 1 69 0
 243 006c 074B     		ldr	r3, .L24
 244 006e DB88     		ldrh	r3, [r3, #6]
 245 0070 C3F18003 		rsb	r3, r3, #128
ARM GAS  /tmp/ccmqDnAB.s 			page 7


 246 0074 B342     		cmp	r3, r6
 247 0076 02DD     		ble	.L23
 248              	.LBB4:
  71:Display/display.c ****     {
 249              		.loc 1 71 0
 250 0078 2246     		mov	r2, r4
 251              	.LBE4:
 252 007a 0025     		movs	r5, #0
 253 007c C8E7     		b	.L18
 254              	.L23:
  97:Display/display.c ****     pointerx=1;
  98:Display/display.c ****     max_break = 0;
  99:Display/display.c ****     max_space = 0;
 100:Display/display.c ****   }
 101:Display/display.c ****   EPD_Display(BlackImage);
 255              		.loc 1 101 0
 256 007e 054B     		ldr	r3, .L24+8
 257 0080 1868     		ldr	r0, [r3]
 258 0082 FFF7FEFF 		bl	EPD_Display
 259              	.LVL21:
 102:Display/display.c **** }
 260              		.loc 1 102 0
 261 0086 02B0     		add	sp, sp, #8
 262              	.LCFI6:
 263              		.cfi_def_cfa_offset 24
 264              		@ sp needed
 265 0088 BDE8F081 		pop	{r4, r5, r6, r7, r8, pc}
 266              	.LVL22:
 267              	.L25:
 268              		.align	2
 269              	.L24:
 270 008c 00000000 		.word	Font12
 271 0090 00000000 		.word	.LC0
 272 0094 00000000 		.word	BlackImage
 273              		.cfi_endproc
 274              	.LFE125:
 276              		.comm	BlackImage,4,4
 277              		.comm	click,4,4
 278              		.comm	current_position,4,4
 279              		.comm	menu_text_usage,12,4
 280              		.comm	mode,4,4
 281              		.comm	action,4,4
 282              		.section	.rodata.Display_Text.str1.4,"aMS",%progbits,1
 283              		.align	2
 284              	.LC0:
 285 0000 50726F6C 		.ascii	"Prologue\012 Light rapidly faded away as the darkne"
 285      6F677565 
 285      0A204C69 
 285      67687420 
 285      72617069 
 286 0030 73732062 		.ascii	"ss began to swallow him. Hajime Nagumos face twiste"
 286      6567616E 
 286      20746F20 
 286      7377616C 
 286      6C6F7720 
 287 0063 6420696E 		.ascii	"d in terror as he stared at the vanishing light abo"
 287      20746572 
ARM GAS  /tmp/ccmqDnAB.s 			page 8


 287      726F7220 
 287      61732068 
 287      65207374 
 288 0096 76652068 		.ascii	"ve him. He desperately shot out his hand, grasping "
 288      696D2E20 
 288      48652064 
 288      65737065 
 288      72617465 
 289 00c9 61742074 		.ascii	"at the light he knew he could never truly grab hold"
 289      6865206C 
 289      69676874 
 289      20686520 
 289      6B6E6577 
 290 00fc 206F662E 		.ascii	" of. He felt his nether regions tense up as he fell"
 290      20486520 
 290      66656C74 
 290      20686973 
 290      206E6574 
 291 012f 20667265 		.ascii	" freely through the darkness.\012 The chasm hed fal"
 291      656C7920 
 291      7468726F 
 291      75676820 
 291      74686520 
 292 015f 6C656E20 		.ascii	"len into was so deep that it seemed almost as if he"
 292      696E746F 
 292      20776173 
 292      20736F20 
 292      64656570 
 293 0192 20776173 		.ascii	" was falling down to the pits of hell. And the ligh"
 293      2066616C 
 293      6C696E67 
 293      20646F77 
 293      6E20746F 
 294 01c5 74206865 		.ascii	"t he was staring at was the portal to the world of "
 294      20776173 
 294      20737461 
 294      72696E67 
 294      20617420 
 295 01f8 74686520 		.ascii	"the living. Hed fallen down a massive tear in the e"
 295      6C697669 
 295      6E672E20 
 295      48656420 
 295      66616C6C 
 296 022b 61727468 		.ascii	"arth while hed been exploring a dungeon. The hole w"
 296      20776869 
 296      6C652068 
 296      65642062 
 296      65656E20 
 297 025e 61732073 		.ascii	"as so deep that he kept falling long after the tiny"
 297      6F206465 
 297      65702074 
 297      68617420 
 297      6865206B 
 298 0291 2070696E 		.ascii	" pinprick of light had shrunk to nothing. His entir"
 298      70726963 
 298      6B206F66 
 298      206C6967 
ARM GAS  /tmp/ccmqDnAB.s 			page 9


 298      68742068 
 299 02c4 65206C69 		.ascii	"e life flashed before his eyes, with nothing but th"
 299      66652066 
 299      6C617368 
 299      65642062 
 299      65666F72 
 300 02f7 6520736F 		.ascii	"e sound of wind rushing past accompanying his plung"
 300      756E6420 
 300      6F662077 
 300      696E6420 
 300      72757368 
 301 032a 6520746F 		.ascii	"e to the hellish depths below.\012 Let us turn back"
 301      20746865 
 301      2068656C 
 301      6C697368 
 301      20646570 
 302 035a 20746865 		.ascii	" the clock a bit and recount how a young Japanese b"
 302      20636C6F 
 302      636B2061 
 302      20626974 
 302      20616E64 
 303 038d 6F792066 		.ascii	"oy found himself in a world that was far too cruel "
 303      6F756E64 
 303      2068696D 
 303      73656C66 
 303      20696E20 
 304 03c0 616E6420 		.ascii	"and heartless for the word fantasy to be an accurat"
 304      68656172 
 304      746C6573 
 304      7320666F 
 304      72207468 
 305 03f3 65206465 		.ascii	"e descriptor. After all, the harsh and unfair event"
 305      73637269 
 305      70746F72 
 305      2E204166 
 305      74657220 
 306 0426 73206865 		.ascii	"s hed experienced, and was still experiencing, were"
 306      64206578 
 306      70657269 
 306      656E6365 
 306      642C2061 
 307 0459 20612062 		.ascii	" a bit too bereft of the wonderful hopes and dreams"
 307      69742074 
 307      6F6F2062 
 307      65726566 
 307      74206F66 
 308 048c 206F6E65 		.ascii	" one imagined when they heard that word.\012 Monday"
 308      20696D61 
 308      67696E65 
 308      64207768 
 308      656E2074 
 309 04bc 2E205175 		.ascii	". Quite possibly the most depressing day of the wee"
 309      69746520 
 309      706F7373 
 309      69626C79 
 309      20746865 
 310 04ef 6B2E204D 		.ascii	"k. Most people were, without a doubt, sighing heavi"
ARM GAS  /tmp/ccmqDnAB.s 			page 10


 310      6F737420 
 310      70656F70 
 310      6C652077 
 310      6572652C 
 311 0522 6C792061 		.ascii	"ly as they lamented the beginning of the week and t"
 311      73207468 
 311      6579206C 
 311      616D656E 
 311      74656420 
 312 0555 68652065 		.ascii	"he end of their glorious weekend. Hajime Nagumo was"
 312      6E64206F 
 312      66207468 
 312      65697220 
 312      676C6F72 
 313 0588 206E6F20 		.ascii	" no exception. However, in his case, his depression"
 313      65786365 
 313      7074696F 
 313      6E2E2048 
 313      6F776576 
 314 05bb 20776173 		.ascii	" was multiplied by the fact that school was not jus"
 314      206D756C 
 314      7469706C 
 314      69656420 
 314      62792074 
 315 05ee 74206120 		.ascii	"t a pain, but a veritable hell.\000"
 315      7061696E 
 315      2C206275 
 315      74206120 
 315      76657269 
 316              		.text
 317              	.Letext0:
 318              		.file 2 "/usr/arm-none-eabi/include/machine/_default_types.h"
 319              		.file 3 "/usr/arm-none-eabi/include/sys/_stdint.h"
 320              		.file 4 "Drivers/CMSIS/Include/core_cm4.h"
 321              		.file 5 "Drivers/CMSIS/Device/ST/STM32L4xx/Include/system_stm32l4xx.h"
 322              		.file 6 "Drivers/STM32L4xx_HAL_Driver/Inc/stm32l4xx_hal.h"
 323              		.file 7 "Inc/keyboard.h"
 324              		.file 8 "Display/e-Paper/EPD_2in9.h"
 325              		.file 9 "Display/GUI/../Fonts/fonts.h"
 326              		.file 10 "Display/GUI/GUI_Paint.h"
 327              		.file 11 "Display/e-Paper/ImageData.h"
 328              		.file 12 "/usr/arm-none-eabi/include/sys/lock.h"
 329              		.file 13 "/usr/arm-none-eabi/include/sys/_types.h"
 330              		.file 14 "/usr/lib/gcc/arm-none-eabi/7.3.1/include/stddef.h"
 331              		.file 15 "/usr/arm-none-eabi/include/sys/reent.h"
 332              		.file 16 "/usr/arm-none-eabi/include/stdlib.h"
 333              		.file 17 "Display/Menu/menu.h"
 334              		.file 18 "Display/display.h"
ARM GAS  /tmp/ccmqDnAB.s 			page 11


DEFINED SYMBOLS
                            *ABS*:0000000000000000 display.c
     /tmp/ccmqDnAB.s:18     .text.Display_Init:0000000000000000 $t
     /tmp/ccmqDnAB.s:25     .text.Display_Init:0000000000000000 Display_Init
     /tmp/ccmqDnAB.s:88     .text.Display_Init:000000000000004c $d
                            *COM*:0000000000000004 BlackImage
     /tmp/ccmqDnAB.s:94     .text.Display:0000000000000000 $t
     /tmp/ccmqDnAB.s:101    .text.Display:0000000000000000 Display
     /tmp/ccmqDnAB.s:124    .text.Display:0000000000000010 $d
                            *COM*:0000000000000004 action
     /tmp/ccmqDnAB.s:129    .text.Display_Text:0000000000000000 $t
     /tmp/ccmqDnAB.s:136    .text.Display_Text:0000000000000000 Display_Text
     /tmp/ccmqDnAB.s:270    .text.Display_Text:000000000000008c $d
                            *COM*:0000000000000004 click
                            *COM*:0000000000000004 current_position
                            *COM*:000000000000000c menu_text_usage
                            *COM*:0000000000000004 mode
     /tmp/ccmqDnAB.s:283    .rodata.Display_Text.str1.4:0000000000000000 $d

UNDEFINED SYMBOLS
EPD_Init
EPD_Clear
HAL_Delay
malloc
Paint_NewImage
Paint_SelectImage
Paint_Clear
Menu_Init
lut_full_update
Update_Menu
Paint_DrawChar
EPD_Display
Font12
