ARM GAS  /tmp/ccqLD2BX.s 			page 1


   1              		.cpu cortex-m4
   2              		.eabi_attribute 27, 1
   3              		.eabi_attribute 28, 1
   4              		.eabi_attribute 20, 1
   5              		.eabi_attribute 21, 1
   6              		.eabi_attribute 23, 3
   7              		.eabi_attribute 24, 1
   8              		.eabi_attribute 25, 1
   9              		.eabi_attribute 26, 1
  10              		.eabi_attribute 30, 1
  11              		.eabi_attribute 34, 1
  12              		.eabi_attribute 18, 4
  13              		.file	"menu.c"
  14              		.text
  15              	.Ltext0:
  16              		.cfi_sections	.debug_frame
  17              		.section	.text.Display_Draw_Menu_Box,"ax",%progbits
  18              		.align	1
  19              		.global	Display_Draw_Menu_Box
  20              		.syntax unified
  21              		.thumb
  22              		.thumb_func
  23              		.fpu fpv4-sp-d16
  25              	Display_Draw_Menu_Box:
  26              	.LFB126:
  27              		.file 1 "Display/Menu_Mode/menu.c"
   1:Display/Menu_Mode/menu.c **** /**
   2:Display/Menu_Mode/menu.c ****   ******************************************************************************
   3:Display/Menu_Mode/menu.c ****   * @file           : menu.c
   4:Display/Menu_Mode/menu.c ****   * @author         : Karol Gutowski
   5:Display/Menu_Mode/menu.c ****   * @brief          : This file contains funcitons for menu.
   6:Display/Menu_Mode/menu.c ****   ******************************************************************************
   7:Display/Menu_Mode/menu.c ****   */
   8:Display/Menu_Mode/menu.c **** 
   9:Display/Menu_Mode/menu.c ****   #include "menu.h"
  10:Display/Menu_Mode/menu.c **** 
  11:Display/Menu_Mode/menu.c ****   void Menu_Init()
  12:Display/Menu_Mode/menu.c ****   {
  13:Display/Menu_Mode/menu.c ****     menu_text = malloc(sizeof(char *)*menu_length);
  14:Display/Menu_Mode/menu.c ****     *menu_text = "Open";
  15:Display/Menu_Mode/menu.c ****     *(menu_text+1) = "Connect";
  16:Display/Menu_Mode/menu.c ****     *(menu_text+2) = "Options";
  17:Display/Menu_Mode/menu.c **** 
  18:Display/Menu_Mode/menu.c ****     Menu_Reinit();
  19:Display/Menu_Mode/menu.c ****   }
  20:Display/Menu_Mode/menu.c **** 
  21:Display/Menu_Mode/menu.c ****   void Menu_Reinit()
  22:Display/Menu_Mode/menu.c ****   {
  23:Display/Menu_Mode/menu.c ****     EPD_Init(lut_partial_update);
  24:Display/Menu_Mode/menu.c ****     Paint_Clear(WHITE);
  25:Display/Menu_Mode/menu.c ****     for(int i=0;i<menu_length;i++)
  26:Display/Menu_Mode/menu.c ****     {
  27:Display/Menu_Mode/menu.c ****       if(menu_current_position==i)
  28:Display/Menu_Mode/menu.c ****       {
  29:Display/Menu_Mode/menu.c ****         Display_Draw_Menu_Box(i,0,1);
  30:Display/Menu_Mode/menu.c ****         menu_text_usage[i]=1;
  31:Display/Menu_Mode/menu.c ****       }
ARM GAS  /tmp/ccqLD2BX.s 			page 2


  32:Display/Menu_Mode/menu.c ****       else
  33:Display/Menu_Mode/menu.c ****       {
  34:Display/Menu_Mode/menu.c ****         Display_Draw_Menu_Box(i,0,0);
  35:Display/Menu_Mode/menu.c ****         menu_text_usage[i]=0;
  36:Display/Menu_Mode/menu.c ****       }
  37:Display/Menu_Mode/menu.c ****     }
  38:Display/Menu_Mode/menu.c ****     EPD_Display(BlackImage);
  39:Display/Menu_Mode/menu.c ****   }
  40:Display/Menu_Mode/menu.c **** 
  41:Display/Menu_Mode/menu.c ****   void Update_Menu()
  42:Display/Menu_Mode/menu.c ****   {
  43:Display/Menu_Mode/menu.c ****     for(int i=0;i<menu_length;i++)
  44:Display/Menu_Mode/menu.c ****     {
  45:Display/Menu_Mode/menu.c ****       if(menu_current_position==i)
  46:Display/Menu_Mode/menu.c ****       {
  47:Display/Menu_Mode/menu.c ****         if(menu_text_usage[i]==0)
  48:Display/Menu_Mode/menu.c ****           Partial_Display_Draw_Menu_Box(i,0,1);
  49:Display/Menu_Mode/menu.c ****         menu_text_usage[i]=1;
  50:Display/Menu_Mode/menu.c ****       }
  51:Display/Menu_Mode/menu.c ****       else
  52:Display/Menu_Mode/menu.c ****       {
  53:Display/Menu_Mode/menu.c ****         if(menu_text_usage[i]==1)
  54:Display/Menu_Mode/menu.c ****           Partial_Display_Draw_Menu_Box(i,0,0);
  55:Display/Menu_Mode/menu.c ****         menu_text_usage[i]=0;
  56:Display/Menu_Mode/menu.c ****       }
  57:Display/Menu_Mode/menu.c ****     }
  58:Display/Menu_Mode/menu.c ****     EPD_Display(BlackImage);
  59:Display/Menu_Mode/menu.c ****   }
  60:Display/Menu_Mode/menu.c **** 
  61:Display/Menu_Mode/menu.c ****   /*
  62:Display/Menu_Mode/menu.c ****    * Function: Partial_Display_Draw_Menu_Box
  63:Display/Menu_Mode/menu.c ****    * ----------------------------
  64:Display/Menu_Mode/menu.c ****    *   Partialy change the displayed menu to avoid full screen refresh
  65:Display/Menu_Mode/menu.c ****    *
  66:Display/Menu_Mode/menu.c ****    *   position: one real value
  67:Display/Menu_Mode/menu.c ****    *   level: the other real value
  68:Display/Menu_Mode/menu.c ****    *   select: 0 if not selected, selected if any other value
  69:Display/Menu_Mode/menu.c ****    *
  70:Display/Menu_Mode/menu.c ****    *   returns: nothing
  71:Display/Menu_Mode/menu.c ****    */
  72:Display/Menu_Mode/menu.c ****   void Display_Draw_Menu_Box(int position, int level, int select)
  73:Display/Menu_Mode/menu.c ****   {
  28              		.loc 1 73 0
  29              		.cfi_startproc
  30              		@ args = 0, pretend = 0, frame = 0
  31              		@ frame_needed = 0, uses_anonymous_args = 0
  32              	.LVL0:
  33 0000 70B5     		push	{r4, r5, r6, lr}
  34              	.LCFI0:
  35              		.cfi_def_cfa_offset 16
  36              		.cfi_offset 4, -16
  37              		.cfi_offset 5, -12
  38              		.cfi_offset 6, -8
  39              		.cfi_offset 14, -4
  40 0002 84B0     		sub	sp, sp, #16
  41              	.LCFI1:
  42              		.cfi_def_cfa_offset 32
ARM GAS  /tmp/ccqLD2BX.s 			page 3


  43 0004 0446     		mov	r4, r0
  74:Display/Menu_Mode/menu.c ****     if(select==0)
  44              		.loc 1 74 0
  45 0006 12B3     		cbz	r2, .L5
  75:Display/Menu_Mode/menu.c ****     {
  76:Display/Menu_Mode/menu.c ****       Paint_DrawRectangle(2, 2+22*position, 110, 24+22*position, BLACK, DRAW_FILL_EMPTY, DOT_PIXEL_
  77:Display/Menu_Mode/menu.c ****       Paint_DrawString_EN(3, 3+22*position, *(menu_text+position), &Font20, WHITE, BLACK);
  78:Display/Menu_Mode/menu.c ****     }
  79:Display/Menu_Mode/menu.c ****     else
  80:Display/Menu_Mode/menu.c ****     {
  81:Display/Menu_Mode/menu.c ****       Paint_DrawRectangle(2, 2+22*position, 110, 24+22*position, BLACK, DRAW_FILL_FULL, DOT_PIXEL_2
  46              		.loc 1 81 0
  47 0008 00EB8003 		add	r3, r0, r0, lsl #2
  48 000c 00EB4303 		add	r3, r0, r3, lsl #1
  49 0010 5D00     		lsls	r5, r3, #1
  50 0012 ADB2     		uxth	r5, r5
  51 0014 05F11803 		add	r3, r5, #24
  52 0018 9BB2     		uxth	r3, r3
  53 001a A91C     		adds	r1, r5, #2
  54              	.LVL1:
  55 001c 89B2     		uxth	r1, r1
  56 001e 0220     		movs	r0, #2
  57              	.LVL2:
  58 0020 0290     		str	r0, [sp, #8]
  59 0022 0122     		movs	r2, #1
  60              	.LVL3:
  61 0024 0192     		str	r2, [sp, #4]
  62 0026 0026     		movs	r6, #0
  63 0028 0096     		str	r6, [sp]
  64 002a 6E22     		movs	r2, #110
  65 002c FFF7FEFF 		bl	Paint_DrawRectangle
  66              	.LVL4:
  82:Display/Menu_Mode/menu.c ****       Paint_DrawString_EN(3, 3+22*position, *(menu_text+position), &Font20, BLACK, WHITE);
  67              		.loc 1 82 0
  68 0030 174B     		ldr	r3, .L6
  69 0032 1B68     		ldr	r3, [r3]
  70 0034 53F82420 		ldr	r2, [r3, r4, lsl #2]
  71 0038 E91C     		adds	r1, r5, #3
  72 003a FF23     		movs	r3, #255
  73 003c 0193     		str	r3, [sp, #4]
  74 003e 0096     		str	r6, [sp]
  75 0040 144B     		ldr	r3, .L6+4
  76 0042 89B2     		uxth	r1, r1
  77 0044 0320     		movs	r0, #3
  78 0046 FFF7FEFF 		bl	Paint_DrawString_EN
  79              	.LVL5:
  80              	.L1:
  83:Display/Menu_Mode/menu.c ****     }
  84:Display/Menu_Mode/menu.c ****   }
  81              		.loc 1 84 0
  82 004a 04B0     		add	sp, sp, #16
  83              	.LCFI2:
  84              		.cfi_remember_state
  85              		.cfi_def_cfa_offset 16
  86              		@ sp needed
  87 004c 70BD     		pop	{r4, r5, r6, pc}
  88              	.LVL6:
ARM GAS  /tmp/ccqLD2BX.s 			page 4


  89              	.L5:
  90              	.LCFI3:
  91              		.cfi_restore_state
  76:Display/Menu_Mode/menu.c ****       Paint_DrawString_EN(3, 3+22*position, *(menu_text+position), &Font20, WHITE, BLACK);
  92              		.loc 1 76 0
  93 004e 00EB8003 		add	r3, r0, r0, lsl #2
  94 0052 00EB4303 		add	r3, r0, r3, lsl #1
  95 0056 5D00     		lsls	r5, r3, #1
  96 0058 ADB2     		uxth	r5, r5
  97 005a 05F11803 		add	r3, r5, #24
  98 005e 9BB2     		uxth	r3, r3
  99 0060 A91C     		adds	r1, r5, #2
 100              	.LVL7:
 101 0062 89B2     		uxth	r1, r1
 102 0064 0220     		movs	r0, #2
 103              	.LVL8:
 104 0066 0290     		str	r0, [sp, #8]
 105 0068 0026     		movs	r6, #0
 106 006a 0196     		str	r6, [sp, #4]
 107 006c 0096     		str	r6, [sp]
 108 006e 6E22     		movs	r2, #110
 109              	.LVL9:
 110 0070 FFF7FEFF 		bl	Paint_DrawRectangle
 111              	.LVL10:
  77:Display/Menu_Mode/menu.c ****     }
 112              		.loc 1 77 0
 113 0074 064B     		ldr	r3, .L6
 114 0076 1B68     		ldr	r3, [r3]
 115 0078 53F82420 		ldr	r2, [r3, r4, lsl #2]
 116 007c E91C     		adds	r1, r5, #3
 117 007e 0196     		str	r6, [sp, #4]
 118 0080 FF23     		movs	r3, #255
 119 0082 0093     		str	r3, [sp]
 120 0084 034B     		ldr	r3, .L6+4
 121 0086 89B2     		uxth	r1, r1
 122 0088 0320     		movs	r0, #3
 123 008a FFF7FEFF 		bl	Paint_DrawString_EN
 124              	.LVL11:
 125 008e DCE7     		b	.L1
 126              	.L7:
 127              		.align	2
 128              	.L6:
 129 0090 00000000 		.word	.LANCHOR0
 130 0094 00000000 		.word	Font20
 131              		.cfi_endproc
 132              	.LFE126:
 134              		.section	.text.Menu_Reinit,"ax",%progbits
 135              		.align	1
 136              		.global	Menu_Reinit
 137              		.syntax unified
 138              		.thumb
 139              		.thumb_func
 140              		.fpu fpv4-sp-d16
 142              	Menu_Reinit:
 143              	.LFB124:
  22:Display/Menu_Mode/menu.c ****     EPD_Init(lut_partial_update);
 144              		.loc 1 22 0
ARM GAS  /tmp/ccqLD2BX.s 			page 5


 145              		.cfi_startproc
 146              		@ args = 0, pretend = 0, frame = 0
 147              		@ frame_needed = 0, uses_anonymous_args = 0
 148 0000 10B5     		push	{r4, lr}
 149              	.LCFI4:
 150              		.cfi_def_cfa_offset 8
 151              		.cfi_offset 4, -8
 152              		.cfi_offset 14, -4
  23:Display/Menu_Mode/menu.c ****     Paint_Clear(WHITE);
 153              		.loc 1 23 0
 154 0002 1348     		ldr	r0, .L16
 155 0004 FFF7FEFF 		bl	EPD_Init
 156              	.LVL12:
  24:Display/Menu_Mode/menu.c ****     for(int i=0;i<menu_length;i++)
 157              		.loc 1 24 0
 158 0008 FF20     		movs	r0, #255
 159 000a FFF7FEFF 		bl	Paint_Clear
 160              	.LVL13:
 161              	.LBB2:
  25:Display/Menu_Mode/menu.c ****     {
 162              		.loc 1 25 0
 163 000e 0024     		movs	r4, #0
 164 0010 09E0     		b	.L9
 165              	.LVL14:
 166              	.L15:
  29:Display/Menu_Mode/menu.c ****         menu_text_usage[i]=1;
 167              		.loc 1 29 0
 168 0012 0122     		movs	r2, #1
 169 0014 0021     		movs	r1, #0
 170 0016 2046     		mov	r0, r4
 171 0018 FFF7FEFF 		bl	Display_Draw_Menu_Box
 172              	.LVL15:
  30:Display/Menu_Mode/menu.c ****       }
 173              		.loc 1 30 0
 174 001c 0D4B     		ldr	r3, .L16+4
 175 001e 0122     		movs	r2, #1
 176 0020 43F82420 		str	r2, [r3, r4, lsl #2]
 177              	.L11:
  25:Display/Menu_Mode/menu.c ****     {
 178              		.loc 1 25 0 discriminator 2
 179 0024 0134     		adds	r4, r4, #1
 180              	.LVL16:
 181              	.L9:
  25:Display/Menu_Mode/menu.c ****     {
 182              		.loc 1 25 0 is_stmt 0 discriminator 1
 183 0026 022C     		cmp	r4, #2
 184 0028 0DDC     		bgt	.L14
  27:Display/Menu_Mode/menu.c ****       {
 185              		.loc 1 27 0 is_stmt 1
 186 002a 0B4B     		ldr	r3, .L16+8
 187 002c 1B68     		ldr	r3, [r3]
 188 002e A342     		cmp	r3, r4
 189 0030 EFD0     		beq	.L15
  34:Display/Menu_Mode/menu.c ****         menu_text_usage[i]=0;
 190              		.loc 1 34 0
 191 0032 0022     		movs	r2, #0
 192 0034 1146     		mov	r1, r2
ARM GAS  /tmp/ccqLD2BX.s 			page 6


 193 0036 2046     		mov	r0, r4
 194 0038 FFF7FEFF 		bl	Display_Draw_Menu_Box
 195              	.LVL17:
  35:Display/Menu_Mode/menu.c ****       }
 196              		.loc 1 35 0
 197 003c 054B     		ldr	r3, .L16+4
 198 003e 0022     		movs	r2, #0
 199 0040 43F82420 		str	r2, [r3, r4, lsl #2]
 200 0044 EEE7     		b	.L11
 201              	.L14:
 202              	.LBE2:
  38:Display/Menu_Mode/menu.c ****   }
 203              		.loc 1 38 0
 204 0046 054B     		ldr	r3, .L16+12
 205 0048 1868     		ldr	r0, [r3]
 206 004a FFF7FEFF 		bl	EPD_Display
 207              	.LVL18:
  39:Display/Menu_Mode/menu.c **** 
 208              		.loc 1 39 0
 209 004e 10BD     		pop	{r4, pc}
 210              	.LVL19:
 211              	.L17:
 212              		.align	2
 213              	.L16:
 214 0050 00000000 		.word	lut_partial_update
 215 0054 00000000 		.word	menu_text_usage
 216 0058 00000000 		.word	menu_current_position
 217 005c 00000000 		.word	BlackImage
 218              		.cfi_endproc
 219              	.LFE124:
 221              		.section	.text.Menu_Init,"ax",%progbits
 222              		.align	1
 223              		.global	Menu_Init
 224              		.syntax unified
 225              		.thumb
 226              		.thumb_func
 227              		.fpu fpv4-sp-d16
 229              	Menu_Init:
 230              	.LFB123:
  12:Display/Menu_Mode/menu.c ****     menu_text = malloc(sizeof(char *)*menu_length);
 231              		.loc 1 12 0
 232              		.cfi_startproc
 233              		@ args = 0, pretend = 0, frame = 0
 234              		@ frame_needed = 0, uses_anonymous_args = 0
 235 0000 08B5     		push	{r3, lr}
 236              	.LCFI5:
 237              		.cfi_def_cfa_offset 8
 238              		.cfi_offset 3, -8
 239              		.cfi_offset 14, -4
  13:Display/Menu_Mode/menu.c ****     *menu_text = "Open";
 240              		.loc 1 13 0
 241 0002 0C20     		movs	r0, #12
 242 0004 FFF7FEFF 		bl	malloc
 243              	.LVL20:
 244 0008 054B     		ldr	r3, .L20
 245 000a 1860     		str	r0, [r3]
  14:Display/Menu_Mode/menu.c ****     *(menu_text+1) = "Connect";
ARM GAS  /tmp/ccqLD2BX.s 			page 7


 246              		.loc 1 14 0
 247 000c 054B     		ldr	r3, .L20+4
 248 000e 0360     		str	r3, [r0]
  15:Display/Menu_Mode/menu.c ****     *(menu_text+2) = "Options";
 249              		.loc 1 15 0
 250 0010 054B     		ldr	r3, .L20+8
 251 0012 4360     		str	r3, [r0, #4]
  16:Display/Menu_Mode/menu.c **** 
 252              		.loc 1 16 0
 253 0014 054B     		ldr	r3, .L20+12
 254 0016 8360     		str	r3, [r0, #8]
  18:Display/Menu_Mode/menu.c ****   }
 255              		.loc 1 18 0
 256 0018 FFF7FEFF 		bl	Menu_Reinit
 257              	.LVL21:
  19:Display/Menu_Mode/menu.c **** 
 258              		.loc 1 19 0
 259 001c 08BD     		pop	{r3, pc}
 260              	.L21:
 261 001e 00BF     		.align	2
 262              	.L20:
 263 0020 00000000 		.word	.LANCHOR0
 264 0024 00000000 		.word	.LC0
 265 0028 08000000 		.word	.LC1
 266 002c 10000000 		.word	.LC2
 267              		.cfi_endproc
 268              	.LFE123:
 270              		.section	.text.Partial_Display_Draw_Menu_Box,"ax",%progbits
 271              		.align	1
 272              		.global	Partial_Display_Draw_Menu_Box
 273              		.syntax unified
 274              		.thumb
 275              		.thumb_func
 276              		.fpu fpv4-sp-d16
 278              	Partial_Display_Draw_Menu_Box:
 279              	.LFB127:
  85:Display/Menu_Mode/menu.c **** 
  86:Display/Menu_Mode/menu.c ****   /*
  87:Display/Menu_Mode/menu.c ****    * Function: Partial_Display_Draw_Menu_Box
  88:Display/Menu_Mode/menu.c ****    * ----------------------------
  89:Display/Menu_Mode/menu.c ****    *   Partialy change the displayed menu to avoid full screen refresh
  90:Display/Menu_Mode/menu.c ****    *
  91:Display/Menu_Mode/menu.c ****    *   position: one real value
  92:Display/Menu_Mode/menu.c ****    *   level: the other real value
  93:Display/Menu_Mode/menu.c ****    *   select: 0 if not selected, selected if any other value
  94:Display/Menu_Mode/menu.c ****    *
  95:Display/Menu_Mode/menu.c ****    *   returns: nothing
  96:Display/Menu_Mode/menu.c ****    */
  97:Display/Menu_Mode/menu.c ****   void Partial_Display_Draw_Menu_Box(int position, int level, int select)
  98:Display/Menu_Mode/menu.c ****   {
 280              		.loc 1 98 0
 281              		.cfi_startproc
 282              		@ args = 0, pretend = 0, frame = 0
 283              		@ frame_needed = 0, uses_anonymous_args = 0
 284              	.LVL22:
 285 0000 2DE9F041 		push	{r4, r5, r6, r7, r8, lr}
 286              	.LCFI6:
ARM GAS  /tmp/ccqLD2BX.s 			page 8


 287              		.cfi_def_cfa_offset 24
 288              		.cfi_offset 4, -24
 289              		.cfi_offset 5, -20
 290              		.cfi_offset 6, -16
 291              		.cfi_offset 7, -12
 292              		.cfi_offset 8, -8
 293              		.cfi_offset 14, -4
 294 0004 84B0     		sub	sp, sp, #16
 295              	.LCFI7:
 296              		.cfi_def_cfa_offset 40
 297 0006 0746     		mov	r7, r0
 298 0008 9046     		mov	r8, r2
  99:Display/Menu_Mode/menu.c ****     Paint_ClearWindows(2, 2+22*position, 110, 24+22*position, WHITE);
 299              		.loc 1 99 0
 300 000a 00EB8003 		add	r3, r0, r0, lsl #2
 301 000e 00EB4303 		add	r3, r0, r3, lsl #1
 302 0012 5C00     		lsls	r4, r3, #1
 303 0014 A4B2     		uxth	r4, r4
 304 0016 A51C     		adds	r5, r4, #2
 305 0018 ADB2     		uxth	r5, r5
 306 001a 04F11806 		add	r6, r4, #24
 307 001e B6B2     		uxth	r6, r6
 308 0020 FF23     		movs	r3, #255
 309 0022 0093     		str	r3, [sp]
 310 0024 3346     		mov	r3, r6
 311 0026 6E22     		movs	r2, #110
 312              	.LVL23:
 313 0028 2946     		mov	r1, r5
 314              	.LVL24:
 315 002a 0220     		movs	r0, #2
 316              	.LVL25:
 317 002c FFF7FEFF 		bl	Paint_ClearWindows
 318              	.LVL26:
 100:Display/Menu_Mode/menu.c ****     if(select==0)
 319              		.loc 1 100 0
 320 0030 B8F1000F 		cmp	r8, #0
 321 0034 1DD0     		beq	.L26
 101:Display/Menu_Mode/menu.c ****     {
 102:Display/Menu_Mode/menu.c ****       Paint_DrawRectangle(2, 2+22*position, 110, 24+22*position, BLACK, DRAW_FILL_EMPTY, DOT_PIXEL_
 103:Display/Menu_Mode/menu.c ****       Paint_DrawString_EN(3, 3+22*position, *(menu_text+position), &Font20, WHITE, BLACK);
 104:Display/Menu_Mode/menu.c ****     }
 105:Display/Menu_Mode/menu.c ****     else
 106:Display/Menu_Mode/menu.c ****     {
 107:Display/Menu_Mode/menu.c ****       Paint_DrawRectangle(2, 2+22*position, 110, 24+22*position, BLACK, DRAW_FILL_FULL, DOT_PIXEL_2
 322              		.loc 1 107 0
 323 0036 0220     		movs	r0, #2
 324 0038 0290     		str	r0, [sp, #8]
 325 003a 0123     		movs	r3, #1
 326 003c 0193     		str	r3, [sp, #4]
 327 003e 4FF00008 		mov	r8, #0
 328              	.LVL27:
 329 0042 CDF80080 		str	r8, [sp]
 330 0046 3346     		mov	r3, r6
 331 0048 6E22     		movs	r2, #110
 332 004a 2946     		mov	r1, r5
 333 004c FFF7FEFF 		bl	Paint_DrawRectangle
 334              	.LVL28:
ARM GAS  /tmp/ccqLD2BX.s 			page 9


 108:Display/Menu_Mode/menu.c ****       Paint_DrawString_EN(3, 3+22*position, *(menu_text+position), &Font20, BLACK, WHITE);
 335              		.loc 1 108 0
 336 0050 154B     		ldr	r3, .L27
 337 0052 1B68     		ldr	r3, [r3]
 338 0054 53F82720 		ldr	r2, [r3, r7, lsl #2]
 339 0058 E11C     		adds	r1, r4, #3
 340 005a FF23     		movs	r3, #255
 341 005c 0193     		str	r3, [sp, #4]
 342 005e CDF80080 		str	r8, [sp]
 343 0062 124B     		ldr	r3, .L27+4
 344 0064 89B2     		uxth	r1, r1
 345 0066 0320     		movs	r0, #3
 346 0068 FFF7FEFF 		bl	Paint_DrawString_EN
 347              	.LVL29:
 348              	.L22:
 109:Display/Menu_Mode/menu.c ****     }
 110:Display/Menu_Mode/menu.c ****   }
 349              		.loc 1 110 0
 350 006c 04B0     		add	sp, sp, #16
 351              	.LCFI8:
 352              		.cfi_remember_state
 353              		.cfi_def_cfa_offset 24
 354              		@ sp needed
 355 006e BDE8F081 		pop	{r4, r5, r6, r7, r8, pc}
 356              	.LVL30:
 357              	.L26:
 358              	.LCFI9:
 359              		.cfi_restore_state
 102:Display/Menu_Mode/menu.c ****       Paint_DrawString_EN(3, 3+22*position, *(menu_text+position), &Font20, WHITE, BLACK);
 360              		.loc 1 102 0
 361 0072 0220     		movs	r0, #2
 362 0074 0290     		str	r0, [sp, #8]
 363 0076 CDF80480 		str	r8, [sp, #4]
 364 007a CDF80080 		str	r8, [sp]
 365 007e 3346     		mov	r3, r6
 366 0080 6E22     		movs	r2, #110
 367 0082 2946     		mov	r1, r5
 368 0084 FFF7FEFF 		bl	Paint_DrawRectangle
 369              	.LVL31:
 103:Display/Menu_Mode/menu.c ****     }
 370              		.loc 1 103 0
 371 0088 074B     		ldr	r3, .L27
 372 008a 1B68     		ldr	r3, [r3]
 373 008c 53F82720 		ldr	r2, [r3, r7, lsl #2]
 374 0090 E11C     		adds	r1, r4, #3
 375 0092 CDF80480 		str	r8, [sp, #4]
 376 0096 FF23     		movs	r3, #255
 377 0098 0093     		str	r3, [sp]
 378 009a 044B     		ldr	r3, .L27+4
 379 009c 89B2     		uxth	r1, r1
 380 009e 0320     		movs	r0, #3
 381 00a0 FFF7FEFF 		bl	Paint_DrawString_EN
 382              	.LVL32:
 383 00a4 E2E7     		b	.L22
 384              	.L28:
 385 00a6 00BF     		.align	2
 386              	.L27:
ARM GAS  /tmp/ccqLD2BX.s 			page 10


 387 00a8 00000000 		.word	.LANCHOR0
 388 00ac 00000000 		.word	Font20
 389              		.cfi_endproc
 390              	.LFE127:
 392              		.section	.text.Update_Menu,"ax",%progbits
 393              		.align	1
 394              		.global	Update_Menu
 395              		.syntax unified
 396              		.thumb
 397              		.thumb_func
 398              		.fpu fpv4-sp-d16
 400              	Update_Menu:
 401              	.LFB125:
  42:Display/Menu_Mode/menu.c ****     for(int i=0;i<menu_length;i++)
 402              		.loc 1 42 0
 403              		.cfi_startproc
 404              		@ args = 0, pretend = 0, frame = 0
 405              		@ frame_needed = 0, uses_anonymous_args = 0
 406 0000 10B5     		push	{r4, lr}
 407              	.LCFI10:
 408              		.cfi_def_cfa_offset 8
 409              		.cfi_offset 4, -8
 410              		.cfi_offset 14, -4
 411              	.LVL33:
 412              	.LBB3:
  43:Display/Menu_Mode/menu.c ****     {
 413              		.loc 1 43 0
 414 0002 0024     		movs	r4, #0
 415 0004 13E0     		b	.L30
 416              	.LVL34:
 417              	.L39:
  47:Display/Menu_Mode/menu.c ****           Partial_Display_Draw_Menu_Box(i,0,1);
 418              		.loc 1 47 0
 419 0006 154B     		ldr	r3, .L40
 420 0008 53F82430 		ldr	r3, [r3, r4, lsl #2]
 421 000c 23B1     		cbz	r3, .L37
 422              	.L32:
  49:Display/Menu_Mode/menu.c ****       }
 423              		.loc 1 49 0
 424 000e 134B     		ldr	r3, .L40
 425 0010 0122     		movs	r2, #1
 426 0012 43F82420 		str	r2, [r3, r4, lsl #2]
 427 0016 09E0     		b	.L33
 428              	.L37:
  48:Display/Menu_Mode/menu.c ****         menu_text_usage[i]=1;
 429              		.loc 1 48 0
 430 0018 0122     		movs	r2, #1
 431 001a 0021     		movs	r1, #0
 432 001c 2046     		mov	r0, r4
 433 001e FFF7FEFF 		bl	Partial_Display_Draw_Menu_Box
 434              	.LVL35:
 435 0022 F4E7     		b	.L32
 436              	.L34:
  55:Display/Menu_Mode/menu.c ****       }
 437              		.loc 1 55 0
 438 0024 0D4B     		ldr	r3, .L40
 439 0026 0022     		movs	r2, #0
ARM GAS  /tmp/ccqLD2BX.s 			page 11


 440 0028 43F82420 		str	r2, [r3, r4, lsl #2]
 441              	.L33:
  43:Display/Menu_Mode/menu.c ****     {
 442              		.loc 1 43 0 discriminator 2
 443 002c 0134     		adds	r4, r4, #1
 444              	.LVL36:
 445              	.L30:
  43:Display/Menu_Mode/menu.c ****     {
 446              		.loc 1 43 0 is_stmt 0 discriminator 1
 447 002e 022C     		cmp	r4, #2
 448 0030 0EDC     		bgt	.L38
  45:Display/Menu_Mode/menu.c ****       {
 449              		.loc 1 45 0 is_stmt 1
 450 0032 0B4B     		ldr	r3, .L40+4
 451 0034 1B68     		ldr	r3, [r3]
 452 0036 A342     		cmp	r3, r4
 453 0038 E5D0     		beq	.L39
  53:Display/Menu_Mode/menu.c ****           Partial_Display_Draw_Menu_Box(i,0,0);
 454              		.loc 1 53 0
 455 003a 084B     		ldr	r3, .L40
 456 003c 53F82430 		ldr	r3, [r3, r4, lsl #2]
 457 0040 012B     		cmp	r3, #1
 458 0042 EFD1     		bne	.L34
  54:Display/Menu_Mode/menu.c ****         menu_text_usage[i]=0;
 459              		.loc 1 54 0
 460 0044 0022     		movs	r2, #0
 461 0046 1146     		mov	r1, r2
 462 0048 2046     		mov	r0, r4
 463 004a FFF7FEFF 		bl	Partial_Display_Draw_Menu_Box
 464              	.LVL37:
 465 004e E9E7     		b	.L34
 466              	.L38:
 467              	.LBE3:
  58:Display/Menu_Mode/menu.c ****   }
 468              		.loc 1 58 0
 469 0050 044B     		ldr	r3, .L40+8
 470 0052 1868     		ldr	r0, [r3]
 471 0054 FFF7FEFF 		bl	EPD_Display
 472              	.LVL38:
  59:Display/Menu_Mode/menu.c **** 
 473              		.loc 1 59 0
 474 0058 10BD     		pop	{r4, pc}
 475              	.LVL39:
 476              	.L41:
 477 005a 00BF     		.align	2
 478              	.L40:
 479 005c 00000000 		.word	menu_text_usage
 480 0060 00000000 		.word	menu_current_position
 481 0064 00000000 		.word	BlackImage
 482              		.cfi_endproc
 483              	.LFE125:
 485              		.comm	menu_text_usage,12,4
 486              		.comm	click,4,4
 487              		.comm	text_current_position,4,4
 488              		.comm	menu_current_position,4,4
 489              		.comm	action,4,4
 490              		.comm	previous_operation_mode,4,4
ARM GAS  /tmp/ccqLD2BX.s 			page 12


 491              		.comm	operation_mode,4,4
 492              		.comm	BlackImage,4,4
 493              		.comm	previous_text_pointer,4,4
 494              		.comm	text_pointer,4,4
 495              		.section	.bss.menu_text,"aw",%nobits
 496              		.align	2
 497              		.set	.LANCHOR0,. + 0
 500              	menu_text:
 501 0000 00000000 		.space	4
 502              		.section	.rodata.Menu_Init.str1.4,"aMS",%progbits,1
 503              		.align	2
 504              	.LC0:
 505 0000 4F70656E 		.ascii	"Open\000"
 505      00
 506 0005 000000   		.space	3
 507              	.LC1:
 508 0008 436F6E6E 		.ascii	"Connect\000"
 508      65637400 
 509              	.LC2:
 510 0010 4F707469 		.ascii	"Options\000"
 510      6F6E7300 
 511              		.text
 512              	.Letext0:
 513              		.file 2 "/usr/arm-none-eabi/include/machine/_default_types.h"
 514              		.file 3 "/usr/arm-none-eabi/include/sys/_stdint.h"
 515              		.file 4 "Drivers/CMSIS/Include/core_cm4.h"
 516              		.file 5 "Drivers/CMSIS/Device/ST/STM32L4xx/Include/system_stm32l4xx.h"
 517              		.file 6 "Drivers/STM32L4xx_HAL_Driver/Inc/stm32l4xx_hal.h"
 518              		.file 7 "Display/GUI/../Fonts/fonts.h"
 519              		.file 8 "Display/GUI/GUI_Paint.h"
 520              		.file 9 "Display/e-Paper/ImageData.h"
 521              		.file 10 "/usr/arm-none-eabi/include/sys/lock.h"
 522              		.file 11 "/usr/arm-none-eabi/include/sys/_types.h"
 523              		.file 12 "/usr/lib/gcc/arm-none-eabi/7.3.1/include/stddef.h"
 524              		.file 13 "/usr/arm-none-eabi/include/sys/reent.h"
 525              		.file 14 "/usr/arm-none-eabi/include/stdlib.h"
 526              		.file 15 "Display/Text_Mode/text.h"
 527              		.file 16 "Display/Modes/modes.h"
 528              		.file 17 "Inc/keyboard.h"
 529              		.file 18 "Display/e-Paper/EPD_2in9.h"
 530              		.file 19 "Display/Menu_Mode/menu.h"
ARM GAS  /tmp/ccqLD2BX.s 			page 13


DEFINED SYMBOLS
                            *ABS*:0000000000000000 menu.c
     /tmp/ccqLD2BX.s:18     .text.Display_Draw_Menu_Box:0000000000000000 $t
     /tmp/ccqLD2BX.s:25     .text.Display_Draw_Menu_Box:0000000000000000 Display_Draw_Menu_Box
     /tmp/ccqLD2BX.s:129    .text.Display_Draw_Menu_Box:0000000000000090 $d
     /tmp/ccqLD2BX.s:135    .text.Menu_Reinit:0000000000000000 $t
     /tmp/ccqLD2BX.s:142    .text.Menu_Reinit:0000000000000000 Menu_Reinit
     /tmp/ccqLD2BX.s:214    .text.Menu_Reinit:0000000000000050 $d
                            *COM*:000000000000000c menu_text_usage
                            *COM*:0000000000000004 menu_current_position
                            *COM*:0000000000000004 BlackImage
     /tmp/ccqLD2BX.s:222    .text.Menu_Init:0000000000000000 $t
     /tmp/ccqLD2BX.s:229    .text.Menu_Init:0000000000000000 Menu_Init
     /tmp/ccqLD2BX.s:263    .text.Menu_Init:0000000000000020 $d
     /tmp/ccqLD2BX.s:271    .text.Partial_Display_Draw_Menu_Box:0000000000000000 $t
     /tmp/ccqLD2BX.s:278    .text.Partial_Display_Draw_Menu_Box:0000000000000000 Partial_Display_Draw_Menu_Box
     /tmp/ccqLD2BX.s:387    .text.Partial_Display_Draw_Menu_Box:00000000000000a8 $d
     /tmp/ccqLD2BX.s:393    .text.Update_Menu:0000000000000000 $t
     /tmp/ccqLD2BX.s:400    .text.Update_Menu:0000000000000000 Update_Menu
     /tmp/ccqLD2BX.s:479    .text.Update_Menu:000000000000005c $d
                            *COM*:0000000000000004 click
                            *COM*:0000000000000004 text_current_position
                            *COM*:0000000000000004 action
                            *COM*:0000000000000004 previous_operation_mode
                            *COM*:0000000000000004 operation_mode
                            *COM*:0000000000000004 previous_text_pointer
                            *COM*:0000000000000004 text_pointer
     /tmp/ccqLD2BX.s:496    .bss.menu_text:0000000000000000 $d
     /tmp/ccqLD2BX.s:500    .bss.menu_text:0000000000000000 menu_text
     /tmp/ccqLD2BX.s:503    .rodata.Menu_Init.str1.4:0000000000000000 $d

UNDEFINED SYMBOLS
Paint_DrawRectangle
Paint_DrawString_EN
Font20
EPD_Init
Paint_Clear
EPD_Display
lut_partial_update
malloc
Paint_ClearWindows
